EXPORTS 
	??$_Adl_verify_range@PEACPEAC@std@@YAXAEBQEAC0@Z
	??$_Adl_verify_range@PEAHPEAH@std@@YAXAEBQEAH0@Z
	??$_Copy_memmove@PEACPEAC@std@@YAPEACPEAC00@Z
	??$_Copy_memmove@PEAHPEAH@std@@YAPEAHPEAH00@Z
	??$_Copy_unchecked@PEACPEAC@std@@YAPEACPEAC00@Z
	??$_Copy_unchecked@PEAHPEAH@std@@YAPEAHPEAH00@Z
	??$_Get_unwrapped@AEAPEAC@std@@YA?A_TAEAPEAC@Z
	??$_Get_unwrapped@AEAPEAH@std@@YA?A_TAEAPEAH@Z
	??$_Get_unwrapped_n@AEAPEAC_J@std@@YA?A_TAEAPEAC_J@Z
	??$_Get_unwrapped_n@AEAPEAH_J@std@@YA?A_TAEAPEAH_J@Z
	??$_Idl_distance@PEACPEAC@std@@YA?A_PAEBQEAC0@Z
	??$_Idl_distance@PEAHPEAH@std@@YA?A_PAEBQEAH0@Z
	??$_Seek_wrapped@PEACPEAC@std@@YAXAEAPEAC$$QEAPEAC@Z
	??$_Seek_wrapped@PEAHPEAH@std@@YAXAEAPEAH$$QEAPEAH@Z
	??$_To_address@PEAC@std@@YA?A_PAEBQEAC@Z
	??$_To_address@PEAH@std@@YA?A_PAEBQEAH@Z
	??$_Verify_range@C@std@@YAXQEBC0@Z
	??$_Verify_range@H@std@@YAXQEBH0@Z
	??$compute@$$CBH@?$numel@$00@detail@coder@@SA?BHQEBH@Z
	??$compute@$$CBH@?$numel@$01@detail@coder@@SA?BHQEBH@Z
	??$compute@$$CBH@?$numel@$0A@@detail@coder@@SA?BHQEBH@Z
	??$copy@PEACPEAC@std@@YAPEACPEAC00@Z
	??$copy@PEAHPEAH@std@@YAPEAHPEAH00@Z
	??$forward@PEAC@std@@YA$$QEAPEACAEAPEAC@Z
	??$forward@PEAH@std@@YA$$QEAPEAHAEAPEAH@Z
	??$set_size@HH@?$array_base@CH$01@coder@@QEAAXHH@Z
	??$set_size@HH@?$array_base@HH$01@coder@@QEAAXHH@Z
	??$set_size_i@$00H@?$array_base@CH$01@coder@@AEAAXH@Z
	??$set_size_i@$00H@?$array_base@HH$01@coder@@AEAAXH@Z
	??$set_size_i@$0A@HH@?$array_base@CH$01@coder@@AEAAXHH@Z
	??$set_size_i@$0A@HH@?$array_base@HH$01@coder@@AEAAXHH@Z
	??0?$array@C$01@coder@@QEAA@XZ
	??0?$array_base@CH$01@coder@@QEAA@XZ
	??0?$data_ptr@CH@detail@coder@@QEAA@XZ
	??1?$array@C$01@coder@@QEAA@XZ
	??1?$array_base@CH$01@coder@@QEAA@XZ
	??1?$data_ptr@CH@detail@coder@@QEAA@XZ
	??A?$array_base@CH$01@coder@@QEAAAEACH@Z
	??A?$array_base@HH$01@coder@@QEAAAEAHH@Z
	??A?$data_ptr@CH@detail@coder@@QEAAAEACH@Z
	??A?$data_ptr@HH@detail@coder@@QEAAAEAHH@Z
	?capacity@?$data_ptr@CH@detail@coder@@QEBAHXZ
	?capacity@?$data_ptr@HH@detail@coder@@QEBAHXZ
	?check@?$match_dimensions@$00@detail@coder@@SAXXZ
	?compile@@YAXHAEAV?$array@H$01@coder@@@Z
	?ensureCapacity@?$array_base@CH$01@coder@@AEAAXH@Z
	?ensureCapacity@?$array_base@HH$01@coder@@AEAAXH@Z
	?numel@?$array_base@CH$01@coder@@QEBAHXZ
	?numel@?$array_base@HH$01@coder@@QEBAHXZ
	?reserve@?$data_ptr@CH@detail@coder@@QEAAXH@Z
	?reserve@?$data_ptr@HH@detail@coder@@QEAAXH@Z
	?resize@?$data_ptr@CH@detail@coder@@QEAAXH@Z
	?resize@?$data_ptr@HH@detail@coder@@QEAAXH@Z
	?size@?$array_base@HH$01@coder@@QEBAHH@Z
